target datalayout = "e-m:e-p270:32:32-p271:32:32-p272:64:64-i64:64-i128:128-f80:128-n8:16:32:64-S128"
target triple = "x86_64-pc-linux-gnu"

%struct.nghttp2_stream = type { %struct.nghttp2_pq_entry, %struct.nghttp2_pq, i64, i64, i64, i64, i64, i64, ptr, ptr, ptr, ptr, ptr, ptr, ptr, ptr, i64, i32, i32, i32, i32, i32, i32, i32, i32, i32, i32, i16, i32, i8, i8, i8, i8, i8, i8 }
%struct.nghttp2_pq_entry = type { i64 }
%struct.nghttp2_pq = type { ptr, ptr, i64, i64, ptr }

; Function Attrs: nounwind uwtable
define internal i32 @stream_less(ptr noundef %0, ptr noundef %1) #0 {
  %3 = alloca i32, align 4
  %4 = alloca ptr, align 8
  %5 = alloca ptr, align 8
  %6 = alloca ptr, align 8
  %7 = alloca ptr, align 8
  %8 = alloca i32, align 4
  store ptr %0, ptr %4, align 8, !tbaa !53
  store ptr %1, ptr %5, align 8, !tbaa !53
  call void @llvm.lifetime.start.p0(i64 8, ptr %6) #9
  call void @llvm.lifetime.start.p0(i64 8, ptr %7) #9
  %9 = load ptr, ptr %4, align 8, !tbaa !53
  %10 = getelementptr inbounds i8, ptr %9, i64 0
  store ptr %10, ptr %6, align 8, !tbaa !46
  %11 = load ptr, ptr %5, align 8, !tbaa !53
  %12 = getelementptr inbounds i8, ptr %11, i64 0
  store ptr %12, ptr %7, align 8, !tbaa !46
  %13 = load ptr, ptr %6, align 8, !tbaa !46
  %14 = getelementptr inbounds nuw %struct.nghttp2_stream, ptr %13, i32 0, i32 5
  %15 = load i64, ptr %14, align 8, !tbaa !292
  %16 = load ptr, ptr %7, align 8, !tbaa !46
  %17 = getelementptr inbounds nuw %struct.nghttp2_stream, ptr %16, i32 0, i32 5
  %18 = load i64, ptr %17, align 8, !tbaa !292
  %19 = icmp eq i64 %15, %18
  br i1 %19, label %20, label %29

20:                                               ; preds = %2
  %21 = load ptr, ptr %6, align 8, !tbaa !46
  %22 = getelementptr inbounds nuw %struct.nghttp2_stream, ptr %21, i32 0, i32 7
  %23 = load i64, ptr %22, align 8, !tbaa !133
  %24 = load ptr, ptr %7, align 8, !tbaa !46
  %25 = getelementptr inbounds nuw %struct.nghttp2_stream, ptr %24, i32 0, i32 7
  %26 = load i64, ptr %25, align 8, !tbaa !133
  %27 = icmp ult i64 %23, %26
  %28 = zext i1 %27 to i32
  store i32 %28, ptr %3, align 4
  store i32 1, ptr %8, align 4
  br label %39

29:                                               ; preds = %2
  %30 = load ptr, ptr %7, align 8, !tbaa !46
  %31 = getelementptr inbounds nuw %struct.nghttp2_stream, ptr %30, i32 0, i32 5
  %32 = load i64, ptr %31, align 8, !tbaa !292
  %33 = load ptr, ptr %6, align 8, !tbaa !46
  %34 = getelementptr inbounds nuw %struct.nghttp2_stream, ptr %33, i32 0, i32 5
  %35 = load i64, ptr %34, align 8, !tbaa !292
  %36 = sub i64 %32, %35
  %37 = icmp ule i64 %36, 16777215
  %38 = zext i1 %37 to i32
  store i32 %38, ptr %3, align 4
  store i32 1, ptr %8, align 4
  br label %39

39:                                               ; preds = %29, %20
  call void @llvm.lifetime.end.p0(i64 8, ptr %7) #9
  call void @llvm.lifetime.end.p0(i64 8, ptr %6) #9
  %40 = load i32, ptr %3, align 4
  ret i32 %40
}