; Function Attrs: mustprogress nofree norecurse nosync nounwind willreturn memory(argmem: read) uwtable
define internal range(i32 0, 2) i32 @stream_less(ptr noundef readonly captures(none) %0, ptr noundef readonly captures(none) %1) #2 {
  %3 = getelementptr inbounds nuw i8, ptr %0, i64 72
  %4 = load i64, ptr %3, align 8, !tbaa !139
  %5 = getelementptr inbounds nuw i8, ptr %1, i64 72
  %6 = load i64, ptr %5, align 8, !tbaa !139
  %7 = icmp eq i64 %4, %6
  br i1 %7, label %8, label %14

8:                                                ; preds = %2
  %9 = getelementptr inbounds nuw i8, ptr %0, i64 88
  %10 = load i64, ptr %9, align 8, !tbaa !133
  %11 = getelementptr inbounds nuw i8, ptr %1, i64 88
  %12 = load i64, ptr %11, align 8, !tbaa !133
  %13 = icmp ult i64 %10, %12
  br label %17

14:                                               ; preds = %2
  %15 = sub i64 %6, %4
  %16 = icmp ult i64 %15, 16777216
  br label %17

17:                                               ; preds = %14, %8
  %.0.in = phi i1 [ %13, %8 ], [ %16, %14 ]
  %.0 = zext i1 %.0.in to i32
  ret i32 %.0
}